; Function Attrs: mustprogress uwtable
define noundef double @_ZNK8QuantLib3CDO11fairPremiumEv(ptr noundef nonnull align 8 dereferenceable(488) %this) local_unnamed_addr #8 align 2 {
entry:
  %vtable = load ptr, ptr %this, align 8, !tbaa !33
  %vfn = getelementptr inbounds i8, ptr %vtable, i64 24
  %0 = load ptr, ptr %vfn, align 8
  tail call void %0(ptr noundef nonnull align 8 dereferenceable(104) %this)
  %premiumRate_ = getelementptr inbounds nuw i8, ptr %this, i64 328
  %1 = load double, ptr %premiumRate_, align 8, !tbaa !108
  %fneg = fneg double %1
  %protectionValue_ = getelementptr inbounds nuw i8, ptr %this, i64 472
  %2 = load double, ptr %protectionValue_, align 8, !tbaa !191
  %mul = fmul double %2, %fneg
  %premiumValue_ = getelementptr inbounds nuw i8, ptr %this, i64 464
  %3 = load double, ptr %premiumValue_, align 8, !tbaa !189
  %div = fdiv double %mul, %3
  ret double %div
}